target datalayout = "e-m:e-p270:32:32-p271:32:32-p272:64:64-i64:64-i128:128-f80:128-n8:16:32:64-S128"
target triple = "x86_64-unknown-linux-gnu"

%"class.icu_75::LocaleMatcher" = type { ptr, ptr, i32, i32, i32, i32, ptr, ptr, i32, ptr, ptr, ptr, i32, ptr, ptr }

; Function Attrs: mustprogress nounwind uwtable
define void @_ZN6icu_7513LocaleMatcherC2EOS0_(ptr noundef nonnull align 8 dereferenceable(104) %this, ptr noundef nonnull align 8 dereferenceable(104) %src) unnamed_addr #0 align 2 {
entry:
  %this.addr = alloca ptr, align 8
  %src.addr = alloca ptr, align 8
  store ptr %this, ptr %this.addr, align 8
  store ptr %src, ptr %src.addr, align 8
  %this1 = load ptr, ptr %this.addr, align 8
  %likelySubtags = getelementptr inbounds %"class.icu_75::LocaleMatcher", ptr %this1, i32 0, i32 0
  %0 = load ptr, ptr %src.addr, align 8
  %likelySubtags2 = getelementptr inbounds %"class.icu_75::LocaleMatcher", ptr %0, i32 0, i32 0
  %1 = load ptr, ptr %likelySubtags2, align 8
  store ptr %1, ptr %likelySubtags, align 8
  %localeDistance = getelementptr inbounds %"class.icu_75::LocaleMatcher", ptr %this1, i32 0, i32 1
  %2 = load ptr, ptr %src.addr, align 8
  %localeDistance3 = getelementptr inbounds %"class.icu_75::LocaleMatcher", ptr %2, i32 0, i32 1
  %3 = load ptr, ptr %localeDistance3, align 8
  store ptr %3, ptr %localeDistance, align 8
  %thresholdDistance = getelementptr inbounds %"class.icu_75::LocaleMatcher", ptr %this1, i32 0, i32 2
  %4 = load ptr, ptr %src.addr, align 8
  %thresholdDistance4 = getelementptr inbounds %"class.icu_75::LocaleMatcher", ptr %4, i32 0, i32 2
  %5 = load i32, ptr %thresholdDistance4, align 8
  store i32 %5, ptr %thresholdDistance, align 8
  %demotionPerDesiredLocale = getelementptr inbounds %"class.icu_75::LocaleMatcher", ptr %this1, i32 0, i32 3
  %6 = load ptr, ptr %src.addr, align 8
  %demotionPerDesiredLocale5 = getelementptr inbounds %"class.icu_75::LocaleMatcher", ptr %6, i32 0, i32 3
  %7 = load i32, ptr %demotionPerDesiredLocale5, align 4
  store i32 %7, ptr %demotionPerDesiredLocale, align 4
  %favorSubtag = getelementptr inbounds %"class.icu_75::LocaleMatcher", ptr %this1, i32 0, i32 4
  %8 = load ptr, ptr %src.addr, align 8
  %favorSubtag6 = getelementptr inbounds %"class.icu_75::LocaleMatcher", ptr %8, i32 0, i32 4
  %9 = load i32, ptr %favorSubtag6, align 8
  store i32 %9, ptr %favorSubtag, align 8
  %direction = getelementptr inbounds %"class.icu_75::LocaleMatcher", ptr %this1, i32 0, i32 5
  %10 = load ptr, ptr %src.addr, align 8
  %direction7 = getelementptr inbounds %"class.icu_75::LocaleMatcher", ptr %10, i32 0, i32 5
  %11 = load i32, ptr %direction7, align 4
  store i32 %11, ptr %direction, align 4
  %supportedLocales = getelementptr inbounds %"class.icu_75::LocaleMatcher", ptr %this1, i32 0, i32 6
  %12 = load ptr, ptr %src.addr, align 8
  %supportedLocales8 = getelementptr inbounds %"class.icu_75::LocaleMatcher", ptr %12, i32 0, i32 6
  %13 = load ptr, ptr %supportedLocales8, align 8
  store ptr %13, ptr %supportedLocales, align 8
  %lsrs = getelementptr inbounds %"class.icu_75::LocaleMatcher", ptr %this1, i32 0, i32 7
  %14 = load ptr, ptr %src.addr, align 8
  %lsrs9 = getelementptr inbounds %"class.icu_75::LocaleMatcher", ptr %14, i32 0, i32 7
  %15 = load ptr, ptr %lsrs9, align 8
  store ptr %15, ptr %lsrs, align 8
  %supportedLocalesLength = getelementptr inbounds %"class.icu_75::LocaleMatcher", ptr %this1, i32 0, i32 8
  %16 = load ptr, ptr %src.addr, align 8
  %supportedLocalesLength10 = getelementptr inbounds %"class.icu_75::LocaleMatcher", ptr %16, i32 0, i32 8
  %17 = load i32, ptr %supportedLocalesLength10, align 8
  store i32 %17, ptr %supportedLocalesLength, align 8
  %supportedLsrToIndex = getelementptr inbounds %"class.icu_75::LocaleMatcher", ptr %this1, i32 0, i32 9
  %18 = load ptr, ptr %src.addr, align 8
  %supportedLsrToIndex11 = getelementptr inbounds %"class.icu_75::LocaleMatcher", ptr %18, i32 0, i32 9
  %19 = load ptr, ptr %supportedLsrToIndex11, align 8
  store ptr %19, ptr %supportedLsrToIndex, align 8
  %supportedLSRs = getelementptr inbounds %"class.icu_75::LocaleMatcher", ptr %this1, i32 0, i32 10
  %20 = load ptr, ptr %src.addr, align 8
  %supportedLSRs12 = getelementptr inbounds %"class.icu_75::LocaleMatcher", ptr %20, i32 0, i32 10
  %21 = load ptr, ptr %supportedLSRs12, align 8
  store ptr %21, ptr %supportedLSRs, align 8
  %supportedIndexes = getelementptr inbounds %"class.icu_75::LocaleMatcher", ptr %this1, i32 0, i32 11
  %22 = load ptr, ptr %src.addr, align 8
  %supportedIndexes13 = getelementptr inbounds %"class.icu_75::LocaleMatcher", ptr %22, i32 0, i32 11
  %23 = load ptr, ptr %supportedIndexes13, align 8
  store ptr %23, ptr %supportedIndexes, align 8
  %supportedLSRsLength = getelementptr inbounds %"class.icu_75::LocaleMatcher", ptr %this1, i32 0, i32 12
  %24 = load ptr, ptr %src.addr, align 8
  %supportedLSRsLength14 = getelementptr inbounds %"class.icu_75::LocaleMatcher", ptr %24, i32 0, i32 12
  %25 = load i32, ptr %supportedLSRsLength14, align 8
  store i32 %25, ptr %supportedLSRsLength, align 8
  %ownedDefaultLocale = getelementptr inbounds %"class.icu_75::LocaleMatcher", ptr %this1, i32 0, i32 13
  %26 = load ptr, ptr %src.addr, align 8
  %ownedDefaultLocale15 = getelementptr inbounds %"class.icu_75::LocaleMatcher", ptr %26, i32 0, i32 13
  %27 = load ptr, ptr %ownedDefaultLocale15, align 8
  store ptr %27, ptr %ownedDefaultLocale, align 8
  %defaultLocale = getelementptr inbounds %"class.icu_75::LocaleMatcher", ptr %this1, i32 0, i32 14
  %28 = load ptr, ptr %src.addr, align 8
  %defaultLocale16 = getelementptr inbounds %"class.icu_75::LocaleMatcher", ptr %28, i32 0, i32 14
  %29 = load ptr, ptr %defaultLocale16, align 8
  store ptr %29, ptr %defaultLocale, align 8
  %30 = load ptr, ptr %src.addr, align 8
  %supportedLocales17 = getelementptr inbounds %"class.icu_75::LocaleMatcher", ptr %30, i32 0, i32 6
  store ptr null, ptr %supportedLocales17, align 8
  %31 = load ptr, ptr %src.addr, align 8
  %lsrs18 = getelementptr inbounds %"class.icu_75::LocaleMatcher", ptr %31, i32 0, i32 7
  store ptr null, ptr %lsrs18, align 8
  %32 = load ptr, ptr %src.addr, align 8
  %supportedLocalesLength19 = getelementptr inbounds %"class.icu_75::LocaleMatcher", ptr %32, i32 0, i32 8
  store i32 0, ptr %supportedLocalesLength19, align 8
  %33 = load ptr, ptr %src.addr, align 8
  %supportedLsrToIndex20 = getelementptr inbounds %"class.icu_75::LocaleMatcher", ptr %33, i32 0, i32 9
  store ptr null, ptr %supportedLsrToIndex20, align 8
  %34 = load ptr, ptr %src.addr, align 8
  %supportedLSRs21 = getelementptr inbounds %"class.icu_75::LocaleMatcher", ptr %34, i32 0, i32 10
  store ptr null, ptr %supportedLSRs21, align 8
  %35 = load ptr, ptr %src.addr, align 8
  %supportedIndexes22 = getelementptr inbounds %"class.icu_75::LocaleMatcher", ptr %35, i32 0, i32 11
  store ptr null, ptr %supportedIndexes22, align 8
  %36 = load ptr, ptr %src.addr, align 8
  %supportedLSRsLength23 = getelementptr inbounds %"class.icu_75::LocaleMatcher", ptr %36, i32 0, i32 12
  store i32 0, ptr %supportedLSRsLength23, align 8
  %37 = load ptr, ptr %src.addr, align 8
  %ownedDefaultLocale24 = getelementptr inbounds %"class.icu_75::LocaleMatcher", ptr %37, i32 0, i32 13
  store ptr null, ptr %ownedDefaultLocale24, align 8
  %38 = load ptr, ptr %src.addr, align 8
  %defaultLocale25 = getelementptr inbounds %"class.icu_75::LocaleMatcher", ptr %38, i32 0, i32 14
  store ptr null, ptr %defaultLocale25, align 8
  ret void
}