; Function Attrs: mustprogress nofree norecurse nosync nounwind willreturn memory(argmem: readwrite) uwtable
define void @_ZN6icu_7513LocaleMatcherC2EOS0_(ptr nocapture noundef nonnull writeonly align 8 dereferenceable(104) %this, ptr nocapture noundef nonnull align 8 dereferenceable(104) %src) unnamed_addr #0 align 2 {
entry:
  %0 = load ptr, ptr %src, align 8
  store ptr %0, ptr %this, align 8
  %localeDistance = getelementptr inbounds i8, ptr %this, i64 8
  %localeDistance3 = getelementptr inbounds i8, ptr %src, i64 8
  %1 = load ptr, ptr %localeDistance3, align 8
  store ptr %1, ptr %localeDistance, align 8
  %thresholdDistance = getelementptr inbounds i8, ptr %this, i64 16
  %thresholdDistance4 = getelementptr inbounds i8, ptr %src, i64 16
  %2 = load i32, ptr %thresholdDistance4, align 8
  store i32 %2, ptr %thresholdDistance, align 8
  %demotionPerDesiredLocale = getelementptr inbounds i8, ptr %this, i64 20
  %demotionPerDesiredLocale5 = getelementptr inbounds i8, ptr %src, i64 20
  %3 = load i32, ptr %demotionPerDesiredLocale5, align 4
  store i32 %3, ptr %demotionPerDesiredLocale, align 4
  %favorSubtag = getelementptr inbounds i8, ptr %this, i64 24
  %favorSubtag6 = getelementptr inbounds i8, ptr %src, i64 24
  %4 = load i32, ptr %favorSubtag6, align 8
  store i32 %4, ptr %favorSubtag, align 8
  %direction = getelementptr inbounds i8, ptr %this, i64 28
  %direction7 = getelementptr inbounds i8, ptr %src, i64 28
  %5 = load i32, ptr %direction7, align 4
  store i32 %5, ptr %direction, align 4
  %supportedLocales = getelementptr inbounds i8, ptr %this, i64 32
  %supportedLocales8 = getelementptr inbounds i8, ptr %src, i64 32
  %6 = load ptr, ptr %supportedLocales8, align 8
  store ptr %6, ptr %supportedLocales, align 8
  %lsrs = getelementptr inbounds i8, ptr %this, i64 40
  %lsrs9 = getelementptr inbounds i8, ptr %src, i64 40
  %7 = load ptr, ptr %lsrs9, align 8
  store ptr %7, ptr %lsrs, align 8
  %supportedLocalesLength = getelementptr inbounds i8, ptr %this, i64 48
  %supportedLocalesLength10 = getelementptr inbounds i8, ptr %src, i64 48
  %8 = load i32, ptr %supportedLocalesLength10, align 8
  store i32 %8, ptr %supportedLocalesLength, align 8
  %supportedLsrToIndex = getelementptr inbounds i8, ptr %this, i64 56
  %supportedLsrToIndex11 = getelementptr inbounds i8, ptr %src, i64 56
  %9 = load ptr, ptr %supportedLsrToIndex11, align 8
  store ptr %9, ptr %supportedLsrToIndex, align 8
  %supportedLSRs = getelementptr inbounds i8, ptr %this, i64 64
  %supportedLSRs12 = getelementptr inbounds i8, ptr %src, i64 64
  %10 = load ptr, ptr %supportedLSRs12, align 8
  store ptr %10, ptr %supportedLSRs, align 8
  %supportedIndexes = getelementptr inbounds i8, ptr %this, i64 72
  %supportedIndexes13 = getelementptr inbounds i8, ptr %src, i64 72
  %11 = load ptr, ptr %supportedIndexes13, align 8
  store ptr %11, ptr %supportedIndexes, align 8
  %supportedLSRsLength = getelementptr inbounds i8, ptr %this, i64 80
  %supportedLSRsLength14 = getelementptr inbounds i8, ptr %src, i64 80
  %12 = load i32, ptr %supportedLSRsLength14, align 8
  store i32 %12, ptr %supportedLSRsLength, align 8
  %ownedDefaultLocale = getelementptr inbounds i8, ptr %this, i64 88
  %ownedDefaultLocale15 = getelementptr inbounds i8, ptr %src, i64 88
  %13 = load ptr, ptr %ownedDefaultLocale15, align 8
  store ptr %13, ptr %ownedDefaultLocale, align 8
  %defaultLocale = getelementptr inbounds i8, ptr %this, i64 96
  %defaultLocale16 = getelementptr inbounds i8, ptr %src, i64 96
  %14 = load ptr, ptr %defaultLocale16, align 8
  store ptr %14, ptr %defaultLocale, align 8
  tail call void @llvm.memset.p0.i64(ptr noundef nonnull align 8 dereferenceable(20) %supportedLocales8, i8 0, i64 20, i1 false)
  tail call void @llvm.memset.p0.i64(ptr noundef nonnull align 8 dereferenceable(28) %supportedLsrToIndex11, i8 0, i64 28, i1 false)
  tail call void @llvm.memset.p0.i64(ptr noundef nonnull align 8 dereferenceable(16) %ownedDefaultLocale15, i8 0, i64 16, i1 false)
  ret void
}